; Function Attrs: nounwind uwtable
define internal void @ildes(ptr noundef %0) #0 {
  %2 = getelementptr inbounds nuw i8, ptr %0, i64 128
  %3 = getelementptr inbounds nuw i8, ptr %0, i64 168
  %4 = load ptr, ptr %3, align 8, !tbaa !77
  %5 = getelementptr inbounds nuw i8, ptr %4, i64 48
  %6 = load ptr, ptr %5, align 8, !tbaa !88
  %7 = load ptr, ptr %6, align 8, !tbaa !80
  %.not6.i = icmp eq ptr %7, null
  br i1 %.not6.i, label %pmix_obj_run_destructors.exit, label %.lr.ph.i

.lr.ph.i:                                         ; preds = %1, %.lr.ph.i
  %8 = phi ptr [ %10, %.lr.ph.i ], [ %7, %1 ]
  %.07.i = phi ptr [ %9, %.lr.ph.i ], [ %6, %1 ]
  tail call void %8(ptr noundef nonnull %2) #19
  %9 = getelementptr inbounds nuw i8, ptr %.07.i, i64 8
  %10 = load ptr, ptr %9, align 8, !tbaa !80
  %.not.i = icmp eq ptr %10, null
  br i1 %.not.i, label %pmix_obj_run_destructors.exit, label %.lr.ph.i, !llvm.loop !89

pmix_obj_run_destructors.exit:                    ; preds = %.lr.ph.i, %1
  %11 = getelementptr inbounds nuw i8, ptr %0, i64 288
  %12 = tail call i32 @pthread_cond_destroy(ptr noundef nonnull %11) #19
  %13 = getelementptr inbounds nuw i8, ptr %0, i64 752
  %14 = load volatile i64, ptr %13, align 8, !tbaa !109
  %15 = icmp eq i64 %14, 0
  br i1 %15, label %._crit_edge, label %.lr.ph

.lr.ph:                                           ; preds = %pmix_obj_run_destructors.exit
  %16 = getelementptr inbounds nuw i8, ptr %0, i64 728
  br label %17

17:                                               ; preds = %.lr.ph, %50
  %18 = load volatile i64, ptr %13, align 8, !tbaa !109
  %19 = add i64 %18, -1
  store volatile i64 %19, ptr %13, align 8, !tbaa !109
  %20 = load ptr, ptr %16, align 8, !tbaa !140
  %21 = getelementptr inbounds nuw i8, ptr %20, i64 128
  %22 = load volatile ptr, ptr %21, align 8, !tbaa !108
  %23 = getelementptr inbounds nuw i8, ptr %20, i64 120
  %24 = load volatile ptr, ptr %23, align 8, !tbaa !96
  %25 = getelementptr inbounds nuw i8, ptr %24, i64 128
  store volatile ptr %22, ptr %25, align 8, !tbaa !108
  %26 = load volatile ptr, ptr %23, align 8, !tbaa !96
  store ptr %26, ptr %16, align 8, !tbaa !140
  %27 = tail call i32 @pthread_mutex_lock(ptr noundef nonnull %20) #19
  %28 = icmp eq i32 %27, 35
  br i1 %28, label %29, label %pmix_obj_update.exit

29:                                               ; preds = %17
  %30 = tail call ptr @__errno_location() #22
  store i32 35, ptr %30, align 4, !tbaa !23
  tail call void @perror(ptr noundef nonnull @.str.86) #23
  tail call void @abort() #24
  unreachable

pmix_obj_update.exit:                             ; preds = %17
  %31 = getelementptr inbounds nuw i8, ptr %20, i64 48
  %32 = load i32, ptr %31, align 8, !tbaa !78
  %33 = add nsw i32 %32, -1
  store i32 %33, ptr %31, align 8, !tbaa !78
  %34 = tail call i32 @pthread_mutex_unlock(ptr noundef nonnull %20) #19
  %35 = icmp eq i32 %33, 0
  br i1 %35, label %36, label %50

36:                                               ; preds = %pmix_obj_update.exit
  %37 = getelementptr inbounds nuw i8, ptr %20, i64 40
  %38 = load ptr, ptr %37, align 8, !tbaa !77
  %39 = getelementptr inbounds nuw i8, ptr %38, i64 48
  %40 = load ptr, ptr %39, align 8, !tbaa !88
  %41 = load ptr, ptr %40, align 8, !tbaa !80
  %.not6.i12 = icmp eq ptr %41, null
  br i1 %.not6.i12, label %pmix_obj_run_destructors.exit16, label %.lr.ph.i13

.lr.ph.i13:                                       ; preds = %36, %.lr.ph.i13
  %42 = phi ptr [ %44, %.lr.ph.i13 ], [ %41, %36 ]
  %.07.i14 = phi ptr [ %43, %.lr.ph.i13 ], [ %40, %36 ]
  tail call void %42(ptr noundef nonnull %20) #19
  %43 = getelementptr inbounds nuw i8, ptr %.07.i14, i64 8
  %44 = load ptr, ptr %43, align 8, !tbaa !80
  %.not.i15 = icmp eq ptr %44, null
  br i1 %.not.i15, label %pmix_obj_run_destructors.exit16, label %.lr.ph.i13, !llvm.loop !89

pmix_obj_run_destructors.exit16:                  ; preds = %.lr.ph.i13, %36
  %45 = getelementptr inbounds nuw i8, ptr %20, i64 96
  %46 = load ptr, ptr %45, align 8, !tbaa !90
  %.not11 = icmp eq ptr %46, null
  br i1 %.not11, label %49, label %47

47:                                               ; preds = %pmix_obj_run_destructors.exit16
  %48 = getelementptr inbounds nuw i8, ptr %20, i64 56
  tail call void %46(ptr noundef nonnull %48, ptr noundef nonnull %20) #19
  br label %50

49:                                               ; preds = %pmix_obj_run_destructors.exit16
  tail call void @free(ptr noundef nonnull %20) #19
  br label %50

50:                                               ; preds = %47, %49, %pmix_obj_update.exit
  %51 = load volatile i64, ptr %13, align 8, !tbaa !109
  %52 = icmp eq i64 %51, 0
  br i1 %52, label %._crit_edge, label %17, !llvm.loop !417

._crit_edge:                                      ; preds = %50, %pmix_obj_run_destructors.exit
  %53 = getelementptr inbounds nuw i8, ptr %0, i64 488
  %54 = getelementptr inbounds nuw i8, ptr %0, i64 528
  %55 = load ptr, ptr %54, align 8, !tbaa !77
  %56 = getelementptr inbounds nuw i8, ptr %55, i64 48
  %57 = load ptr, ptr %56, align 8, !tbaa !88
  %58 = load ptr, ptr %57, align 8, !tbaa !80
  %.not6.i18 = icmp eq ptr %58, null
  br i1 %.not6.i18, label %pmix_obj_run_destructors.exit22, label %.lr.ph.i19

.lr.ph.i19:                                       ; preds = %._crit_edge, %.lr.ph.i19
  %59 = phi ptr [ %61, %.lr.ph.i19 ], [ %58, %._crit_edge ]
  %.07.i20 = phi ptr [ %60, %.lr.ph.i19 ], [ %57, %._crit_edge ]
  tail call void %59(ptr noundef nonnull %53) #19
  %60 = getelementptr inbounds nuw i8, ptr %.07.i20, i64 8
  %61 = load ptr, ptr %60, align 8, !tbaa !80
  %.not.i21 = icmp eq ptr %61, null
  br i1 %.not.i21, label %pmix_obj_run_destructors.exit22, label %.lr.ph.i19, !llvm.loop !89

pmix_obj_run_destructors.exit22:                  ; preds = %.lr.ph.i19, %._crit_edge
  ret void
}